target datalayout = "e-m:e-p270:32:32-p271:32:32-p272:64:64-i64:64-i128:128-f80:128-n8:16:32:64-S128"
target triple = "x86_64-unknown-linux-gnu"

%"class.google::protobuf::internal::InternalMetadata" = type { i64 }
%"class.google::protobuf::internal::HasBits" = type { [1 x i32] }
%"class.google::protobuf::internal::CachedSize" = type { i32 }
%"struct.google::protobuf::internal::ArenaStringPtr" = type { %"class.google::protobuf::internal::TaggedStringPtr" }
%"class.google::protobuf::internal::TaggedStringPtr" = type { ptr }
%"class.google::protobuf::Message" = type { %"class.google::protobuf::MessageLite" }
%"class.google::protobuf::MessageLite" = type { ptr, %"class.google::protobuf::internal::InternalMetadata" }
%"class.google::protobuf::EnumValueDescriptorProto" = type { %"class.google::protobuf::Message", %union.anon.56 }
%union.anon.56 = type { %"struct.google::protobuf::EnumValueDescriptorProto::Impl_" }
%"struct.google::protobuf::EnumValueDescriptorProto::Impl_" = type <{ %"class.google::protobuf::internal::HasBits", %"class.google::protobuf::internal::CachedSize", %"struct.google::protobuf::internal::ArenaStringPtr", ptr, i32, [4 x i8] }>

; Function Attrs: mustprogress nounwind uwtable
define linkonce_odr hidden noundef i64 @_ZNK6google8protobuf8internal15TaggedStringPtr6as_intEv(ptr noundef nonnull align 8 dereferenceable(8) %this) #5 comdat align 2 {
entry:
  %this.addr = alloca ptr, align 8
  store ptr %this, ptr %this.addr, align 8
  %this1 = load ptr, ptr %this.addr, align 8
  %ptr_ = getelementptr inbounds %"class.google::protobuf::internal::TaggedStringPtr", ptr %this1, i32 0, i32 0
  %0 = load ptr, ptr %ptr_, align 8
  %1 = ptrtoint ptr %0 to i64
  ret i64 %1
}

; Function Attrs: mustprogress nounwind uwtable
define linkonce_odr hidden noundef ptr @_ZNK6google8protobuf8internal15TaggedStringPtr3GetB5cxx11Ev(ptr noundef nonnull align 8 dereferenceable(8) %this) #5 comdat align 2 {
entry:
  %this.addr = alloca ptr, align 8
  store ptr %this, ptr %this.addr, align 8
  %this1 = load ptr, ptr %this.addr, align 8
  %call = call noundef i64 @_ZNK6google8protobuf8internal15TaggedStringPtr6as_intEv(ptr noundef nonnull align 8 dereferenceable(8) %this1)
  %and = and i64 %call, -4
  %0 = inttoptr i64 %and to ptr
  ret ptr %0
}

; Function Attrs: mustprogress uwtable
define linkonce_odr hidden void @_ZN6google8protobuf8internal14ArenaStringPtr22ClearNonDefaultToEmptyEv(ptr noundef nonnull align 8 dereferenceable(8) %this) #4 comdat align 2 {
entry:
  %this.addr = alloca ptr, align 8
  store ptr %this, ptr %this.addr, align 8
  %this1 = load ptr, ptr %this.addr, align 8
  %tagged_ptr_ = getelementptr inbounds %"struct.google::protobuf::internal::ArenaStringPtr", ptr %this1, i32 0, i32 0
  %call = call noundef ptr @_ZNK6google8protobuf8internal15TaggedStringPtr3GetB5cxx11Ev(ptr noundef nonnull align 8 dereferenceable(8) %tagged_ptr_)
  call void @_ZNSt7__cxx1112basic_stringIcSt11char_traitsIcESaIcEE5clearEv(ptr noundef nonnull align 8 dereferenceable(32) %call) #3
  ret void
}

; Function Attrs: mustprogress uwtable
define void @_ZN6google8protobuf24EnumValueDescriptorProto5ClearEv(ptr noundef nonnull align 8 dereferenceable(48) %this) unnamed_addr #4 align 2 {
entry:
  %this.addr.i18 = alloca ptr, align 8
  %this.addr.i16 = alloca ptr, align 8
  %this.addr.i14 = alloca ptr, align 8
  %index.addr.i = alloca i32, align 4
  %this.addr.i11 = alloca ptr, align 8
  %this.addr.i = alloca ptr, align 8
  %this.addr = alloca ptr, align 8
  %cached_has_bits = alloca i32, align 4
  store ptr %this, ptr %this.addr, align 8
  %this1 = load ptr, ptr %this.addr, align 8
  store i32 0, ptr %cached_has_bits, align 4
  %0 = getelementptr inbounds %"class.google::protobuf::EnumValueDescriptorProto", ptr %this1, i32 0, i32 1
  %_has_bits_ = getelementptr inbounds %"struct.google::protobuf::EnumValueDescriptorProto::Impl_", ptr %0, i32 0, i32 0
  store ptr %_has_bits_, ptr %this.addr.i14, align 8
  store i32 0, ptr %index.addr.i, align 4
  %this1.i15 = load ptr, ptr %this.addr.i14, align 8
  %1 = load i32, ptr %index.addr.i, align 4
  %idxprom.i = sext i32 %1 to i64
  %arrayidx.i = getelementptr inbounds [1 x i32], ptr %this1.i15, i64 0, i64 %idxprom.i
  %2 = load i32, ptr %arrayidx.i, align 4
  store i32 %2, ptr %cached_has_bits, align 4
  %3 = load i32, ptr %cached_has_bits, align 4
  %and = and i32 %3, 3
  %tobool = icmp ne i32 %and, 0
  br i1 %tobool, label %if.then, label %if.end9

if.then:                                          ; preds = %entry
  %4 = load i32, ptr %cached_has_bits, align 4
  %and2 = and i32 %4, 1
  %tobool3 = icmp ne i32 %and2, 0
  br i1 %tobool3, label %if.then4, label %if.end

if.then4:                                         ; preds = %if.then
  %5 = getelementptr inbounds %"class.google::protobuf::EnumValueDescriptorProto", ptr %this1, i32 0, i32 1
  %name_ = getelementptr inbounds %"struct.google::protobuf::EnumValueDescriptorProto::Impl_", ptr %5, i32 0, i32 2
  call void @_ZN6google8protobuf8internal14ArenaStringPtr22ClearNonDefaultToEmptyEv(ptr noundef nonnull align 8 dereferenceable(8) %name_)
  br label %if.end

if.end:                                           ; preds = %if.then4, %if.then
  %6 = load i32, ptr %cached_has_bits, align 4
  %and5 = and i32 %6, 2
  %tobool6 = icmp ne i32 %and5, 0
  br i1 %tobool6, label %if.then7, label %if.end8

if.then7:                                         ; preds = %if.end
  %7 = getelementptr inbounds %"class.google::protobuf::EnumValueDescriptorProto", ptr %this1, i32 0, i32 1
  %options_ = getelementptr inbounds %"struct.google::protobuf::EnumValueDescriptorProto::Impl_", ptr %7, i32 0, i32 3
  %8 = load ptr, ptr %options_, align 8
  call void @_ZN6google8protobuf16EnumValueOptions5ClearEv(ptr noundef nonnull align 8 dereferenceable(88) %8)
  br label %if.end8

if.end8:                                          ; preds = %if.then7, %if.end
  br label %if.end9

if.end9:                                          ; preds = %if.end8, %entry
  %9 = getelementptr inbounds %"class.google::protobuf::EnumValueDescriptorProto", ptr %this1, i32 0, i32 1
  %number_ = getelementptr inbounds %"struct.google::protobuf::EnumValueDescriptorProto::Impl_", ptr %9, i32 0, i32 4
  store i32 0, ptr %number_, align 8
  %10 = getelementptr inbounds %"class.google::protobuf::EnumValueDescriptorProto", ptr %this1, i32 0, i32 1
  %_has_bits_10 = getelementptr inbounds %"struct.google::protobuf::EnumValueDescriptorProto::Impl_", ptr %10, i32 0, i32 0
  store ptr %_has_bits_10, ptr %this.addr.i16, align 8
  %this1.i17 = load ptr, ptr %this.addr.i16, align 8
  call void @llvm.memset.p0.i64(ptr align 4 %this1.i17, i8 0, i64 4, i1 false)
  %_internal_metadata_ = getelementptr inbounds %"class.google::protobuf::MessageLite", ptr %this1, i32 0, i32 1
  store ptr %_internal_metadata_, ptr %this.addr.i, align 8
  %this1.i = load ptr, ptr %this.addr.i, align 8
  store ptr %this1.i, ptr %this.addr.i11, align 8
  %this1.i12 = load ptr, ptr %this.addr.i11, align 8
  store ptr %this1.i12, ptr %this.addr.i18, align 8
  %this1.i19 = load ptr, ptr %this.addr.i18, align 8
  %11 = load i64, ptr %this1.i19, align 8
  %and.i = and i64 %11, 1
  %tobool.i = icmp ne i64 %and.i, 0
  br i1 %tobool.i, label %if.then.i, label %_ZN6google8protobuf8internal16InternalMetadata5ClearINS0_15UnknownFieldSetEEEvv.exit

if.then.i:                                        ; preds = %if.end9
  call void @_ZN6google8protobuf8internal16InternalMetadata7DoClearINS0_15UnknownFieldSetEEEvv(ptr noundef nonnull align 8 dereferenceable(8) %this1.i)
  br label %_ZN6google8protobuf8internal16InternalMetadata5ClearINS0_15UnknownFieldSetEEEvv.exit

_ZN6google8protobuf8internal16InternalMetadata5ClearINS0_15UnknownFieldSetEEEvv.exit: ; preds = %if.then.i, %if.end9
  ret void
}