; Function Attrs: mustprogress uwtable
define void @_ZN6google8protobuf24EnumValueDescriptorProto5ClearEv(ptr noundef nonnull align 8 dereferenceable(48) %this) unnamed_addr #3 align 2 {
entry:
  %0 = getelementptr inbounds i8, ptr %this, i64 16
  %1 = load i32, ptr %0, align 8
  %and = and i32 %1, 3
  %tobool.not = icmp eq i32 %and, 0
  br i1 %tobool.not, label %if.end9, label %if.then

if.then:                                          ; preds = %entry
  %and2 = and i32 %1, 1
  %tobool3.not = icmp eq i32 %and2, 0
  br i1 %tobool3.not, label %if.end, label %if.then4

if.then4:                                         ; preds = %if.then
  %name_ = getelementptr inbounds i8, ptr %this, i64 24
  %2 = load ptr, ptr %name_, align 8
  %3 = ptrtoint ptr %2 to i64
  %and.i.i = and i64 %3, -4
  %4 = inttoptr i64 %and.i.i to ptr
  tail call void @_ZNSt7__cxx1112basic_stringIcSt11char_traitsIcESaIcEE5clearEv(ptr noundef nonnull align 8 dereferenceable(32) %4) #22
  br label %if.end

if.end:                                           ; preds = %if.then4, %if.then
  %and5 = and i32 %1, 2
  %tobool6.not = icmp eq i32 %and5, 0
  br i1 %tobool6.not, label %if.end9, label %if.then7

if.then7:                                         ; preds = %if.end
  %options_ = getelementptr inbounds i8, ptr %this, i64 32
  %5 = load ptr, ptr %options_, align 8
  tail call void @_ZN6google8protobuf16EnumValueOptions5ClearEv(ptr noundef nonnull align 8 dereferenceable(88) %5)
  br label %if.end9

if.end9:                                          ; preds = %if.end, %if.then7, %entry
  %number_ = getelementptr inbounds i8, ptr %this, i64 40
  store i32 0, ptr %number_, align 8
  store i32 0, ptr %0, align 8
  %_internal_metadata_ = getelementptr inbounds i8, ptr %this, i64 8
  %6 = load i64, ptr %_internal_metadata_, align 8
  %and.i = and i64 %6, 1
  %tobool.i.not = icmp eq i64 %and.i, 0
  br i1 %tobool.i.not, label %_ZN6google8protobuf8internal16InternalMetadata5ClearINS0_15UnknownFieldSetEEEvv.exit, label %if.then.i

if.then.i:                                        ; preds = %if.end9
  tail call void @_ZN6google8protobuf8internal16InternalMetadata7DoClearINS0_15UnknownFieldSetEEEvv(ptr noundef nonnull align 8 dereferenceable(8) %_internal_metadata_)
  br label %_ZN6google8protobuf8internal16InternalMetadata5ClearINS0_15UnknownFieldSetEEEvv.exit

_ZN6google8protobuf8internal16InternalMetadata5ClearINS0_15UnknownFieldSetEEEvv.exit: ; preds = %if.then.i, %if.end9
  ret void
}